target datalayout = "e-m:e-p270:32:32-p271:32:32-p272:64:64-i64:64-i128:128-f80:128-n8:16:32:64-S128"
target triple = "x86_64-pc-linux-gnu"

%class.GraphKit = type <{ ptr, %class.Phase, ptr, ptr, ptr, ptr, i32, [4 x i8], ptr, ptr, i32, [4 x i8] }>
%class.Phase = type { i32, ptr }
%class.MethodLivenessResult = type <{ %class.ResourceBitMap, i8, [7 x i8] }>
%class.ResourceBitMap = type { %class.GrowableBitMap }
%class.GrowableBitMap = type { %class.BitMap }
%class.BitMap = type { ptr, i64 }
%class.Parse = type { %class.GraphKit.base, ptr, float, float, i32, ptr, i32, ptr, ptr, i32, [4 x i8], %class.GraphKit, i8, i8, i8, i8, ptr, ptr, %class.ciBytecodeStream, ptr, i8, i8, i32 }
%class.GraphKit.base = type <{ ptr, %class.Phase, ptr, ptr, ptr, ptr, i32, [4 x i8], ptr, ptr, i32 }>
%class.ciBytecodeStream = type { ptr, ptr, ptr, ptr, ptr, ptr, ptr, ptr, i32, i32 }
%"class.Parse::Block" = type { ptr, i32, i32, i32, i8, i8, i8, ptr, %class.MethodLivenessResult, i8, i32, i32, ptr }
%"class.ciTypeFlow::Block" = type { ptr, ptr, ptr, ptr, %class.GrowableArray.12, ptr, ptr, i32, i32, i32, i32, i8, i8, i8, i8, i8, ptr, ptr, ptr }
%class.GrowableArray.12 = type { %class.GrowableArrayWithAllocator.13, %class.GrowableArrayMetadata }
%class.GrowableArrayWithAllocator.13 = type { %class.GrowableArrayView.14 }
%class.GrowableArrayView.14 = type { %class.GrowableArrayBase, ptr }
%class.GrowableArrayBase = type { i32, i32 }
%class.GrowableArrayMetadata = type { i64 }
%class.ciBlock = type { i32, i32, i32, i32, i32, i32, i32 }

@g_assert_poison = external global ptr, align 8
@.str = private unnamed_addr constant [34 x i8] c"src/hotspot/share/opto/parse1.cpp\00", align 1

; Function Attrs: mustprogress nounwind uwtable
define linkonce_odr hidden noundef i32 @_ZNK7ciBlock9start_bciEv(ptr noundef nonnull align 4 dereferenceable(28) %0) #1 comdat align 2 {
  %2 = alloca ptr, align 8
  store ptr %0, ptr %2, align 8
  %3 = load ptr, ptr %2, align 8
  %4 = getelementptr inbounds %class.ciBlock, ptr %3, i32 0, i32 1
  %5 = load i32, ptr %4, align 4
  ret i32 %5
}

; Function Attrs: mustprogress nounwind uwtable
define linkonce_odr hidden noundef i32 @_ZNK10ciTypeFlow5Block5startEv(ptr noundef nonnull align 8 dereferenceable(120) %0) #1 comdat align 2 {
  %2 = alloca ptr, align 8
  store ptr %0, ptr %2, align 8
  %3 = load ptr, ptr %2, align 8
  %4 = getelementptr inbounds %"class.ciTypeFlow::Block", ptr %3, i32 0, i32 0
  %5 = load ptr, ptr %4, align 8
  %6 = call noundef i32 @_ZNK7ciBlock9start_bciEv(ptr noundef nonnull align 4 dereferenceable(28) %5)
  ret i32 %6
}

; Function Attrs: mustprogress nounwind uwtable
define linkonce_odr hidden noundef ptr @_ZNK5Parse5Block4flowEv(ptr noundef nonnull align 8 dereferenceable(80) %0) #1 comdat align 2 {
  %2 = alloca ptr, align 8
  store ptr %0, ptr %2, align 8
  %3 = load ptr, ptr %2, align 8
  %4 = getelementptr inbounds %"class.Parse::Block", ptr %3, i32 0, i32 0
  %5 = load ptr, ptr %4, align 8
  ret ptr %5
}

; Function Attrs: mustprogress nounwind uwtable
define linkonce_odr hidden noundef i32 @_ZNK5Parse5Block5startEv(ptr noundef nonnull align 8 dereferenceable(80) %0) #1 comdat align 2 {
  %2 = alloca ptr, align 8
  store ptr %0, ptr %2, align 8
  %3 = load ptr, ptr %2, align 8
  %4 = call noundef ptr @_ZNK5Parse5Block4flowEv(ptr noundef nonnull align 8 dereferenceable(80) %3)
  %5 = call noundef i32 @_ZNK10ciTypeFlow5Block5startEv(ptr noundef nonnull align 8 dereferenceable(120) %4)
  ret i32 %5
}

; Function Attrs: mustprogress nounwind uwtable
define linkonce_odr hidden noundef ptr @_ZNK5Parse5Block12successor_atEi(ptr noundef nonnull align 8 dereferenceable(80) %0, i32 noundef %1) #1 comdat align 2 {
  %3 = alloca ptr, align 8
  %4 = alloca i32, align 4
  store ptr %0, ptr %3, align 8
  store i32 %1, ptr %4, align 4
  %5 = load ptr, ptr %3, align 8
  %6 = getelementptr inbounds %"class.Parse::Block", ptr %5, i32 0, i32 12
  %7 = load ptr, ptr %6, align 8
  %8 = load i32, ptr %4, align 4
  %9 = sext i32 %8 to i64
  %10 = getelementptr inbounds ptr, ptr %7, i64 %9
  %11 = load ptr, ptr %10, align 8
  ret ptr %11
}

; Function Attrs: mustprogress nounwind uwtable
define linkonce_odr hidden noundef i32 @_ZNK5Parse5Block14all_successorsEv(ptr noundef nonnull align 8 dereferenceable(80) %0) #1 comdat align 2 {
  %2 = alloca ptr, align 8
  store ptr %0, ptr %2, align 8
  %3 = load ptr, ptr %2, align 8
  %4 = getelementptr inbounds %"class.Parse::Block", ptr %3, i32 0, i32 11
  %5 = load i32, ptr %4, align 8
  ret i32 %5
}

; Function Attrs: mustprogress nounwind uwtable
define hidden noundef ptr @_ZN5Parse5Block17successor_for_bciEi(ptr noundef nonnull align 8 dereferenceable(80) %0, i32 noundef %1) #1 align 2 {
  %3 = alloca ptr, align 8
  %4 = alloca ptr, align 8
  %5 = alloca i32, align 4
  %6 = alloca i32, align 4
  %7 = alloca ptr, align 8
  store ptr %0, ptr %4, align 8
  store i32 %1, ptr %5, align 4
  %8 = load ptr, ptr %4, align 8
  store i32 0, ptr %6, align 4
  br label %9

9:                                                ; preds = %23, %2
  %10 = load i32, ptr %6, align 4
  %11 = call noundef i32 @_ZNK5Parse5Block14all_successorsEv(ptr noundef nonnull align 8 dereferenceable(80) %8)
  %12 = icmp slt i32 %10, %11
  br i1 %12, label %13, label %26

13:                                               ; preds = %9
  %14 = load i32, ptr %6, align 4
  %15 = call noundef ptr @_ZNK5Parse5Block12successor_atEi(ptr noundef nonnull align 8 dereferenceable(80) %8, i32 noundef %14)
  store ptr %15, ptr %7, align 8
  %16 = load ptr, ptr %7, align 8
  %17 = call noundef i32 @_ZNK5Parse5Block5startEv(ptr noundef nonnull align 8 dereferenceable(80) %16)
  %18 = load i32, ptr %5, align 4
  %19 = icmp eq i32 %17, %18
  br i1 %19, label %20, label %22

20:                                               ; preds = %13
  %21 = load ptr, ptr %7, align 8
  store ptr %21, ptr %3, align 8
  br label %27

22:                                               ; preds = %13
  br label %23

23:                                               ; preds = %22
  %24 = load i32, ptr %6, align 4
  %25 = add nsw i32 %24, 1
  store i32 %25, ptr %6, align 4
  br label %9, !llvm.loop !35

26:                                               ; preds = %9
  store ptr null, ptr %3, align 8
  br label %27

27:                                               ; preds = %26, %20
  %28 = load ptr, ptr %3, align 8
  ret ptr %28
}

; Function Attrs: mustprogress nounwind uwtable
define linkonce_odr hidden noundef ptr @_ZNK5Parse5blockEv(ptr noundef nonnull align 8 dereferenceable(352) %0) #1 comdat align 2 {
  %2 = alloca ptr, align 8
  store ptr %0, ptr %2, align 8
  %3 = load ptr, ptr %2, align 8
  %4 = getelementptr inbounds %class.Parse, ptr %3, i32 0, i32 17
  %5 = load ptr, ptr %4, align 8
  ret ptr %5
}

; Function Attrs: mustprogress nounwind uwtable
define hidden void @_ZN5Parse24handle_missing_successorEi(ptr noundef nonnull align 8 dereferenceable(352) %0, i32 noundef %1) #1 align 2 {
  %3 = alloca ptr, align 8
  %4 = alloca i32, align 4
  store ptr %0, ptr %3, align 8
  store i32 %1, ptr %4, align 4
  br label %5

5:                                                ; preds = %2
  %6 = load ptr, ptr @g_assert_poison, align 8
  store i8 88, ptr %6, align 1
  call void @_Z28report_should_not_reach_herePKci(ptr noundef @.str, i32 noundef 1680) #8
  unreachable

7:                                                ; No predecessors!
  ret void
}

; Function Attrs: mustprogress nounwind uwtable
define linkonce_odr hidden noundef ptr @_ZN5Parse17successor_for_bciEi(ptr noundef nonnull align 8 dereferenceable(352) %0, i32 noundef %1) #1 comdat align 2 {
  %3 = alloca ptr, align 8
  %4 = alloca i32, align 4
  store ptr %0, ptr %3, align 8
  store i32 %1, ptr %4, align 4
  %5 = load ptr, ptr %3, align 8
  %6 = call noundef ptr @_ZNK5Parse5blockEv(ptr noundef nonnull align 8 dereferenceable(352) %5)
  %7 = load i32, ptr %4, align 4
  %8 = call noundef ptr @_ZN5Parse5Block17successor_for_bciEi(ptr noundef nonnull align 8 dereferenceable(80) %6, i32 noundef %7)
  ret ptr %8
}

; Function Attrs: mustprogress nounwind uwtable
define hidden void @_ZN5Parse15merge_exceptionEi(ptr noundef nonnull align 8 dereferenceable(352) %0, i32 noundef %1) #1 align 2 {
  %3 = alloca ptr, align 8
  %4 = alloca i32, align 4
  %5 = alloca ptr, align 8
  %6 = alloca i32, align 4
  store ptr %0, ptr %3, align 8
  store i32 %1, ptr %4, align 4
  %7 = load ptr, ptr %3, align 8
  %8 = load i32, ptr %4, align 4
  %9 = call noundef ptr @_ZN5Parse17successor_for_bciEi(ptr noundef nonnull align 8 dereferenceable(352) %7, i32 noundef %8)
  store ptr %9, ptr %5, align 8
  %10 = load ptr, ptr %5, align 8
  %11 = icmp eq ptr %10, null
  br i1 %11, label %12, label %14

12:                                               ; preds = %2
  %13 = load i32, ptr %4, align 4
  call void @_ZN5Parse24handle_missing_successorEi(ptr noundef nonnull align 8 dereferenceable(352) %7, i32 noundef %13)
  br label %19

14:                                               ; preds = %2
  %15 = load ptr, ptr %5, align 8
  %16 = call noundef i32 @_ZN5Parse5Block12add_new_pathEv(ptr noundef nonnull align 8 dereferenceable(80) %15)
  store i32 %16, ptr %6, align 4
  %17 = load ptr, ptr %5, align 8
  %18 = load i32, ptr %6, align 4
  call void @_ZN5Parse12merge_commonEPNS_5BlockEi(ptr noundef nonnull align 8 dereferenceable(352) %7, ptr noundef %17, i32 noundef %18)
  br label %19

19:                                               ; preds = %14, %12
  ret void
}