; Function Attrs: mustprogress nounwind uwtable
define hidden void @_ZN5Parse15merge_exceptionEi(ptr noundef nonnull align 8 dereferenceable(352) %0, i32 noundef %1) local_unnamed_addr #0 align 2 {
  %3 = getelementptr inbounds i8, ptr %0, i64 256
  %4 = load ptr, ptr %3, align 8
  %5 = getelementptr inbounds i8, ptr %4, i64 64
  %6 = load i32, ptr %5, align 8
  %7 = icmp sgt i32 %6, 0
  br i1 %7, label %.lr.ph.i.i, label %.loopexit

.lr.ph.i.i:                                       ; preds = %2
  %8 = getelementptr inbounds i8, ptr %4, i64 72
  %9 = load ptr, ptr %8, align 8
  %wide.trip.count.i.i = zext nneg i32 %6 to i64
  br label %11

10:                                               ; preds = %11
  %indvars.iv.next.i.i = add nuw nsw i64 %indvars.iv.i.i, 1
  %exitcond.not.i.i = icmp eq i64 %indvars.iv.next.i.i, %wide.trip.count.i.i
  br i1 %exitcond.not.i.i, label %.loopexit, label %11, !llvm.loop !33

11:                                               ; preds = %10, %.lr.ph.i.i
  %indvars.iv.i.i = phi i64 [ 0, %.lr.ph.i.i ], [ %indvars.iv.next.i.i, %10 ]
  %12 = getelementptr inbounds ptr, ptr %9, i64 %indvars.iv.i.i
  %13 = load ptr, ptr %12, align 8
  %14 = load ptr, ptr %13, align 8
  %15 = load ptr, ptr %14, align 8
  %16 = getelementptr inbounds i8, ptr %15, i64 4
  %17 = load i32, ptr %16, align 4
  %18 = icmp eq i32 %17, %1
  br i1 %18, label %_ZN5Parse17successor_for_bciEi.exit, label %10

.loopexit:                                        ; preds = %10, %2
  %19 = load ptr, ptr @g_assert_poison, align 8
  store i8 88, ptr %19, align 1
  tail call void @_Z28report_should_not_reach_herePKci(ptr noundef nonnull @.str, i32 noundef 1680) #15
  unreachable

_ZN5Parse17successor_for_bciEi.exit:              ; preds = %11
  %20 = tail call noundef i32 @_ZN5Parse5Block12add_new_pathEv(ptr noundef nonnull align 8 dereferenceable(80) %13)
  tail call void @_ZN5Parse12merge_commonEPNS_5BlockEi(ptr noundef nonnull align 8 dereferenceable(352) %0, ptr noundef nonnull %13, i32 noundef %20)
  ret void
}